; Function Attrs: mustprogress uwtable
define noundef signext range(i8 0, 2) i8 @_ZNK6icu_779VTimeZone8getTZURLERNS_13UnicodeStringE(ptr noundef nonnull align 8 dereferenceable(288) %0, ptr noundef nonnull align 8 dereferenceable(64) %1) local_unnamed_addr #2 align 2 {
  %3 = getelementptr inbounds nuw i8, ptr %0, i64 96
  %4 = load i16, ptr %3, align 8, !tbaa !9
  %5 = icmp slt i16 %4, 0
  %6 = ashr i16 %4, 5
  %7 = sext i16 %6 to i32
  %8 = getelementptr inbounds nuw i8, ptr %0, i64 100
  %9 = load i32, ptr %8, align 4
  %10 = select i1 %5, i32 %9, i32 %7
  %11 = icmp sgt i32 %10, 0
  br i1 %11, label %12, label %15

12:                                               ; preds = %2
  %13 = getelementptr inbounds nuw i8, ptr %0, i64 88
  %14 = tail call noundef nonnull align 8 dereferenceable(64) ptr @_ZN6icu_7713UnicodeStringaSERKS0_(ptr noundef nonnull align 8 dereferenceable(64) %1, ptr noundef nonnull align 8 dereferenceable(64) %13)
  br label %15

15:                                               ; preds = %2, %12
  %.0 = phi i8 [ 1, %12 ], [ 0, %2 ]
  ret i8 %.0
}